target datalayout = "e-m:e-p270:32:32-p271:32:32-p272:64:64-i64:64-i128:128-f80:128-n8:16:32:64-S128"
target triple = "x86_64-pc-linux-gnu"

%"class.std::__cxx11::basic_string" = type { %"struct.std::__cxx11::basic_string<char>::_Alloc_hider", i64, %union.anon }
%"struct.std::__cxx11::basic_string<char>::_Alloc_hider" = type { ptr }
%union.anon = type { i64, [8 x i8] }
%"class.Json::Value" = type { %"union.Json::Value::ValueHolder", %struct.anon, %"class.Json::Value::Comments", i64, i64 }
%"union.Json::Value::ValueHolder" = type { i64 }
%struct.anon = type { i16, [2 x i8] }
%"class.Json::Value::Comments" = type { %"class.std::unique_ptr.167" }
%"class.std::unique_ptr.167" = type { %"struct.std::__uniq_ptr_data.168" }
%"struct.std::__uniq_ptr_data.168" = type { %"class.std::__uniq_ptr_impl.169" }
%"class.std::__uniq_ptr_impl.169" = type { %"class.std::tuple.170" }
%"class.std::tuple.170" = type { %"struct.std::_Tuple_impl.171" }
%"struct.std::_Tuple_impl.171" = type { %"struct.std::_Head_base.174" }
%"struct.std::_Head_base.174" = type { ptr }
%"struct.cmFileAPI::Query" = type { %"class.std::vector", %"class.std::vector.8" }
%"class.std::vector" = type { %"struct.std::_Vector_base" }
%"struct.std::_Vector_base" = type { %"struct.std::_Vector_base<cmFileAPI::Object, std::allocator<cmFileAPI::Object>>::_Vector_impl" }
%"struct.std::_Vector_base<cmFileAPI::Object, std::allocator<cmFileAPI::Object>>::_Vector_impl" = type { %"struct.std::_Vector_base<cmFileAPI::Object, std::allocator<cmFileAPI::Object>>::_Vector_impl_data" }
%"struct.std::_Vector_base<cmFileAPI::Object, std::allocator<cmFileAPI::Object>>::_Vector_impl_data" = type { ptr, ptr, ptr }
%"class.std::vector.8" = type { %"struct.std::_Vector_base.9" }
%"struct.std::_Vector_base.9" = type { %"struct.std::_Vector_base<std::__cxx11::basic_string<char>, std::allocator<std::__cxx11::basic_string<char>>>::_Vector_impl" }
%"struct.std::_Vector_base<std::__cxx11::basic_string<char>, std::allocator<std::__cxx11::basic_string<char>>>::_Vector_impl" = type { %"struct.std::_Vector_base<std::__cxx11::basic_string<char>, std::allocator<std::__cxx11::basic_string<char>>>::_Vector_impl_data" }
%"struct.std::_Vector_base<std::__cxx11::basic_string<char>, std::allocator<std::__cxx11::basic_string<char>>>::_Vector_impl_data" = type { ptr, ptr, ptr }
%"struct.cmFileAPI::ClientQuery" = type { %"struct.cmFileAPI::Query", i8, %"struct.cmFileAPI::ClientQueryJson" }
%"struct.cmFileAPI::ClientQueryJson" = type { %"class.std::__cxx11::basic_string", %"class.Json::Value", %"class.Json::Value", %"struct.cmFileAPI::ClientRequests" }
%"struct.cmFileAPI::ClientRequests" = type { %"class.std::vector.180", %"class.std::__cxx11::basic_string" }
%"class.std::vector.180" = type { %"struct.std::_Vector_base.181" }
%"struct.std::_Vector_base.181" = type { %"struct.std::_Vector_base<cmFileAPI::ClientRequest, std::allocator<cmFileAPI::ClientRequest>>::_Vector_impl" }
%"struct.std::_Vector_base<cmFileAPI::ClientRequest, std::allocator<cmFileAPI::ClientRequest>>::_Vector_impl" = type { %"struct.std::_Vector_base<cmFileAPI::ClientRequest, std::allocator<cmFileAPI::ClientRequest>>::_Vector_impl_data" }
%"struct.std::_Vector_base<cmFileAPI::ClientRequest, std::allocator<cmFileAPI::ClientRequest>>::_Vector_impl_data" = type { ptr, ptr, ptr }

@.str.27 = private unnamed_addr constant [11 x i8] c"query.json\00", align 1
@.str.30 = private unnamed_addr constant [7 x i8] c"client\00", align 1
@.str.31 = private unnamed_addr constant [9 x i8] c"requests\00", align 1
@.str.42 = private unnamed_addr constant [6 x i8] c"error\00", align 1
@.str.61 = private unnamed_addr constant [10 x i8] c"responses\00", align 1

; Function Attrs: mustprogress nounwind uwtable
define available_externally noundef i64 @_ZNKSt7__cxx1112basic_stringIcSt11char_traitsIcESaIcEE4sizeEv(ptr noundef nonnull align 8 dereferenceable(32) %0) #6 align 2 {
  %2 = alloca ptr, align 8
  store ptr %0, ptr %2, align 8, !tbaa !18
  %3 = load ptr, ptr %2, align 8
  %4 = getelementptr inbounds nuw %"class.std::__cxx11::basic_string", ptr %3, i32 0, i32 1
  %5 = load i64, ptr %4, align 8, !tbaa !210
  ret i64 %5
}

; Function Attrs: mustprogress uwtable
define dso_local void @_ZN9cmFileAPI15BuildReplyErrorERKNSt7__cxx1112basic_stringIcSt11char_traitsIcESaIcEEE(ptr dead_on_unwind noalias writable sret(%"class.Json::Value") align 8 %0, ptr noundef nonnull align 8 dereferenceable(32) %1) #5 align 2 personality ptr @__gxx_personality_v0 {
  %3 = alloca ptr, align 8
  %4 = alloca ptr, align 8
  %5 = alloca i1, align 1
  %6 = alloca %"class.Json::Value", align 8
  %7 = alloca ptr, align 8
  %8 = alloca i32, align 4
  store ptr %0, ptr %3, align 8
  store ptr %1, ptr %4, align 8, !tbaa !18
  store i1 false, ptr %5, align 1
  call void @_ZN4Json5ValueC1ENS_9ValueTypeE(ptr noundef nonnull align 8 dereferenceable(40) %0, i32 noundef 7)
  call void @llvm.lifetime.start.p0(i64 40, ptr %6) #3
  %9 = load ptr, ptr %4, align 8, !tbaa !18
  invoke void @_ZN4Json5ValueC1ERKNSt7__cxx1112basic_stringIcSt11char_traitsIcESaIcEEE(ptr noundef nonnull align 8 dereferenceable(40) %6, ptr noundef nonnull align 8 dereferenceable(32) %9)
          to label %10 unwind label %15

10:                                               ; preds = %2
  %11 = invoke noundef nonnull align 8 dereferenceable(40) ptr @_ZN4Json5ValueixEPKc(ptr noundef nonnull align 8 dereferenceable(40) %0, ptr noundef @.str.42)
          to label %12 unwind label %19

12:                                               ; preds = %10
  %13 = call noundef nonnull align 8 dereferenceable(40) ptr @_ZN4Json5ValueaSEOS0_(ptr noundef nonnull align 8 dereferenceable(40) %11, ptr noundef nonnull align 8 dereferenceable(40) %6) #3
  call void @_ZN4Json5ValueD1Ev(ptr noundef nonnull align 8 dereferenceable(40) %6) #3
  call void @llvm.lifetime.end.p0(i64 40, ptr %6) #3
  store i1 true, ptr %5, align 1
  %14 = load i1, ptr %5, align 1
  br i1 %14, label %25, label %24

15:                                               ; preds = %2
  %16 = landingpad { ptr, i32 }
          cleanup
  %17 = extractvalue { ptr, i32 } %16, 0
  store ptr %17, ptr %7, align 8
  %18 = extractvalue { ptr, i32 } %16, 1
  store i32 %18, ptr %8, align 4
  br label %23

19:                                               ; preds = %10
  %20 = landingpad { ptr, i32 }
          cleanup
  %21 = extractvalue { ptr, i32 } %20, 0
  store ptr %21, ptr %7, align 8
  %22 = extractvalue { ptr, i32 } %20, 1
  store i32 %22, ptr %8, align 4
  call void @_ZN4Json5ValueD1Ev(ptr noundef nonnull align 8 dereferenceable(40) %6) #3
  br label %23

23:                                               ; preds = %19, %15
  call void @llvm.lifetime.end.p0(i64 40, ptr %6) #3
  call void @_ZN4Json5ValueD1Ev(ptr noundef nonnull align 8 dereferenceable(40) %0) #3
  br label %26

24:                                               ; preds = %12
  call void @_ZN4Json5ValueD1Ev(ptr noundef nonnull align 8 dereferenceable(40) %0) #3
  br label %25

25:                                               ; preds = %24, %12
  ret void

26:                                               ; preds = %23
  %27 = load ptr, ptr %7, align 8
  %28 = load i32, ptr %8, align 4
  %29 = insertvalue { ptr, i32 } poison, ptr %27, 0
  %30 = insertvalue { ptr, i32 } %29, i32 %28, 1
  resume { ptr, i32 } %30
}

; Function Attrs: mustprogress nounwind uwtable
define available_externally noundef zeroext i1 @_ZNKSt7__cxx1112basic_stringIcSt11char_traitsIcESaIcEE5emptyEv(ptr noundef nonnull align 8 dereferenceable(32) %0) #6 align 2 {
  %2 = alloca ptr, align 8
  store ptr %0, ptr %2, align 8, !tbaa !18
  %3 = load ptr, ptr %2, align 8
  %4 = call noundef i64 @_ZNKSt7__cxx1112basic_stringIcSt11char_traitsIcESaIcEE4sizeEv(ptr noundef nonnull align 8 dereferenceable(32) %3) #3
  %5 = icmp eq i64 %4, 0
  ret i1 %5
}

; Function Attrs: mustprogress uwtable
define dso_local void @_ZN9cmFileAPI16BuildClientReplyERKNS_11ClientQueryE(ptr dead_on_unwind noalias writable sret(%"class.Json::Value") align 8 %0, ptr noundef nonnull align 8 dereferenceable(296) %1, ptr noundef nonnull align 8 dereferenceable(224) %2) #5 align 2 personality ptr @__gxx_personality_v0 {
  %4 = alloca ptr, align 8
  %5 = alloca ptr, align 8
  %6 = alloca ptr, align 8
  %7 = alloca i1, align 1
  %8 = alloca i32, align 4
  %9 = alloca ptr, align 8
  %10 = alloca ptr, align 8
  %11 = alloca i32, align 4
  %12 = alloca ptr, align 8
  %13 = alloca %"class.Json::Value", align 8
  %14 = alloca %"class.Json::Value", align 8
  store ptr %0, ptr %4, align 8
  store ptr %1, ptr %5, align 8, !tbaa !20
  store ptr %2, ptr %6, align 8, !tbaa !122
  %15 = load ptr, ptr %5, align 8
  store i1 false, ptr %7, align 1
  %16 = load ptr, ptr %6, align 8, !tbaa !122
  %17 = getelementptr inbounds nuw %"struct.cmFileAPI::ClientQuery", ptr %16, i32 0, i32 0
  call void @_ZN9cmFileAPI10BuildReplyERKNS_5QueryE(ptr dead_on_unwind writable sret(%"class.Json::Value") align 8 %0, ptr noundef nonnull align 8 dereferenceable(296) %15, ptr noundef nonnull align 8 dereferenceable(48) %17)
  %18 = load ptr, ptr %6, align 8, !tbaa !122
  %19 = getelementptr inbounds nuw %"struct.cmFileAPI::ClientQuery", ptr %18, i32 0, i32 1
  %20 = load i8, ptr %19, align 8, !tbaa !124, !range !109, !noundef !110
  %21 = trunc i8 %20 to i1
  br i1 %21, label %23, label %22

22:                                               ; preds = %3
  store i1 true, ptr %7, align 1
  store i32 1, ptr %8, align 4
  br label %95

23:                                               ; preds = %3
  call void @llvm.lifetime.start.p0(i64 8, ptr %9) #3
  %24 = invoke noundef nonnull align 8 dereferenceable(40) ptr @_ZN4Json5ValueixEPKc(ptr noundef nonnull align 8 dereferenceable(40) %0, ptr noundef @.str.27)
          to label %25 unwind label %37

25:                                               ; preds = %23
  store ptr %24, ptr %9, align 8, !tbaa !173
  call void @llvm.lifetime.start.p0(i64 8, ptr %12) #3
  %26 = load ptr, ptr %6, align 8, !tbaa !122
  %27 = getelementptr inbounds nuw %"struct.cmFileAPI::ClientQuery", ptr %26, i32 0, i32 2
  store ptr %27, ptr %12, align 8, !tbaa !236
  %28 = load ptr, ptr %12, align 8, !tbaa !236
  %29 = getelementptr inbounds nuw %"struct.cmFileAPI::ClientQueryJson", ptr %28, i32 0, i32 0
  %30 = call noundef zeroext i1 @_ZNKSt7__cxx1112basic_stringIcSt11char_traitsIcESaIcEE5emptyEv(ptr noundef nonnull align 8 dereferenceable(32) %29) #3
  br i1 %30, label %45, label %31

31:                                               ; preds = %25
  call void @llvm.lifetime.start.p0(i64 40, ptr %13) #3
  %32 = load ptr, ptr %12, align 8, !tbaa !236
  %33 = getelementptr inbounds nuw %"struct.cmFileAPI::ClientQueryJson", ptr %32, i32 0, i32 0
  invoke void @_ZN9cmFileAPI15BuildReplyErrorERKNSt7__cxx1112basic_stringIcSt11char_traitsIcESaIcEEE(ptr dead_on_unwind writable sret(%"class.Json::Value") align 8 %13, ptr noundef nonnull align 8 dereferenceable(32) %33)
          to label %34 unwind label %41

34:                                               ; preds = %31
  %35 = load ptr, ptr %9, align 8, !tbaa !173
  %36 = call noundef nonnull align 8 dereferenceable(40) ptr @_ZN4Json5ValueaSEOS0_(ptr noundef nonnull align 8 dereferenceable(40) %35, ptr noundef nonnull align 8 dereferenceable(40) %13) #3
  call void @_ZN4Json5ValueD1Ev(ptr noundef nonnull align 8 dereferenceable(40) %13) #3
  call void @llvm.lifetime.end.p0(i64 40, ptr %13) #3
  store i1 true, ptr %7, align 1
  store i32 1, ptr %8, align 4
  br label %92

37:                                               ; preds = %23
  %38 = landingpad { ptr, i32 }
          cleanup
  %39 = extractvalue { ptr, i32 } %38, 0
  store ptr %39, ptr %10, align 8
  %40 = extractvalue { ptr, i32 } %38, 1
  store i32 %40, ptr %11, align 4
  br label %94

41:                                               ; preds = %31
  %42 = landingpad { ptr, i32 }
          cleanup
  %43 = extractvalue { ptr, i32 } %42, 0
  store ptr %43, ptr %10, align 8
  %44 = extractvalue { ptr, i32 } %42, 1
  store i32 %44, ptr %11, align 4
  call void @llvm.lifetime.end.p0(i64 40, ptr %13) #3
  br label %93

45:                                               ; preds = %25
  %46 = load ptr, ptr %12, align 8, !tbaa !236
  %47 = getelementptr inbounds nuw %"struct.cmFileAPI::ClientQueryJson", ptr %46, i32 0, i32 1
  %48 = invoke noundef zeroext i1 @_ZNK4Json5Value6isNullEv(ptr noundef nonnull align 8 dereferenceable(40) %47)
          to label %49 unwind label %58

49:                                               ; preds = %45
  br i1 %48, label %62, label %50

50:                                               ; preds = %49
  %51 = load ptr, ptr %12, align 8, !tbaa !236
  %52 = getelementptr inbounds nuw %"struct.cmFileAPI::ClientQueryJson", ptr %51, i32 0, i32 1
  %53 = load ptr, ptr %9, align 8, !tbaa !173
  %54 = invoke noundef nonnull align 8 dereferenceable(40) ptr @_ZN4Json5ValueixEPKc(ptr noundef nonnull align 8 dereferenceable(40) %53, ptr noundef @.str.30)
          to label %55 unwind label %58

55:                                               ; preds = %50
  %56 = invoke noundef nonnull align 8 dereferenceable(40) ptr @_ZN4Json5ValueaSERKS0_(ptr noundef nonnull align 8 dereferenceable(40) %54, ptr noundef nonnull align 8 dereferenceable(40) %52)
          to label %57 unwind label %58

57:                                               ; preds = %55
  br label %62

58:                                               ; preds = %72, %67, %62, %55, %50, %45
  %59 = landingpad { ptr, i32 }
          cleanup
  %60 = extractvalue { ptr, i32 } %59, 0
  store ptr %60, ptr %10, align 8
  %61 = extractvalue { ptr, i32 } %59, 1
  store i32 %61, ptr %11, align 4
  br label %93

62:                                               ; preds = %57, %49
  %63 = load ptr, ptr %12, align 8, !tbaa !236
  %64 = getelementptr inbounds nuw %"struct.cmFileAPI::ClientQueryJson", ptr %63, i32 0, i32 2
  %65 = invoke noundef zeroext i1 @_ZNK4Json5Value6isNullEv(ptr noundef nonnull align 8 dereferenceable(40) %64)
          to label %66 unwind label %58

66:                                               ; preds = %62
  br i1 %65, label %75, label %67

67:                                               ; preds = %66
  %68 = load ptr, ptr %12, align 8, !tbaa !236
  %69 = getelementptr inbounds nuw %"struct.cmFileAPI::ClientQueryJson", ptr %68, i32 0, i32 2
  %70 = load ptr, ptr %9, align 8, !tbaa !173
  %71 = invoke noundef nonnull align 8 dereferenceable(40) ptr @_ZN4Json5ValueixEPKc(ptr noundef nonnull align 8 dereferenceable(40) %70, ptr noundef @.str.31)
          to label %72 unwind label %58

72:                                               ; preds = %67
  %73 = invoke noundef nonnull align 8 dereferenceable(40) ptr @_ZN4Json5ValueaSERKS0_(ptr noundef nonnull align 8 dereferenceable(40) %71, ptr noundef nonnull align 8 dereferenceable(40) %69)
          to label %74 unwind label %58

74:                                               ; preds = %72
  br label %75

75:                                               ; preds = %74, %66
  call void @llvm.lifetime.start.p0(i64 40, ptr %14) #3
  %76 = load ptr, ptr %12, align 8, !tbaa !236
  %77 = getelementptr inbounds nuw %"struct.cmFileAPI::ClientQueryJson", ptr %76, i32 0, i32 3
  invoke void @_ZN9cmFileAPI25BuildClientReplyResponsesERKNS_14ClientRequestsE(ptr dead_on_unwind writable sret(%"class.Json::Value") align 8 %14, ptr noundef nonnull align 8 dereferenceable(296) %15, ptr noundef nonnull align 8 dereferenceable(56) %77)
          to label %78 unwind label %83

78:                                               ; preds = %75
  %79 = load ptr, ptr %9, align 8, !tbaa !173
  %80 = invoke noundef nonnull align 8 dereferenceable(40) ptr @_ZN4Json5ValueixEPKc(ptr noundef nonnull align 8 dereferenceable(40) %79, ptr noundef @.str.61)
          to label %81 unwind label %87

81:                                               ; preds = %78
  %82 = call noundef nonnull align 8 dereferenceable(40) ptr @_ZN4Json5ValueaSEOS0_(ptr noundef nonnull align 8 dereferenceable(40) %80, ptr noundef nonnull align 8 dereferenceable(40) %14) #3
  call void @_ZN4Json5ValueD1Ev(ptr noundef nonnull align 8 dereferenceable(40) %14) #3
  call void @llvm.lifetime.end.p0(i64 40, ptr %14) #3
  store i1 true, ptr %7, align 1
  store i32 1, ptr %8, align 4
  br label %92

83:                                               ; preds = %75
  %84 = landingpad { ptr, i32 }
          cleanup
  %85 = extractvalue { ptr, i32 } %84, 0
  store ptr %85, ptr %10, align 8
  %86 = extractvalue { ptr, i32 } %84, 1
  store i32 %86, ptr %11, align 4
  br label %91

87:                                               ; preds = %78
  %88 = landingpad { ptr, i32 }
          cleanup
  %89 = extractvalue { ptr, i32 } %88, 0
  store ptr %89, ptr %10, align 8
  %90 = extractvalue { ptr, i32 } %88, 1
  store i32 %90, ptr %11, align 4
  call void @_ZN4Json5ValueD1Ev(ptr noundef nonnull align 8 dereferenceable(40) %14) #3
  br label %91

91:                                               ; preds = %87, %83
  call void @llvm.lifetime.end.p0(i64 40, ptr %14) #3
  br label %93

92:                                               ; preds = %81, %34
  call void @llvm.lifetime.end.p0(i64 8, ptr %12) #3
  call void @llvm.lifetime.end.p0(i64 8, ptr %9) #3
  br label %95

93:                                               ; preds = %91, %58, %41
  call void @llvm.lifetime.end.p0(i64 8, ptr %12) #3
  br label %94

94:                                               ; preds = %93, %37
  call void @llvm.lifetime.end.p0(i64 8, ptr %9) #3
  call void @_ZN4Json5ValueD1Ev(ptr noundef nonnull align 8 dereferenceable(40) %0) #3
  br label %99

95:                                               ; preds = %92, %22
  %96 = load i1, ptr %7, align 1
  br i1 %96, label %98, label %97

97:                                               ; preds = %95
  call void @_ZN4Json5ValueD1Ev(ptr noundef nonnull align 8 dereferenceable(40) %0) #3
  br label %98

98:                                               ; preds = %97, %95
  ret void

99:                                               ; preds = %94
  %100 = load ptr, ptr %10, align 8
  %101 = load i32, ptr %11, align 4
  %102 = insertvalue { ptr, i32 } poison, ptr %100, 0
  %103 = insertvalue { ptr, i32 } %102, i32 %101, 1
  resume { ptr, i32 } %103
}