; Function Attrs: mustprogress uwtable
define dso_local void @_ZN9cmFileAPI16BuildClientReplyERKNS_11ClientQueryE(ptr dead_on_unwind noalias writable sret(%"class.Json::Value") align 8 %0, ptr noundef nonnull align 8 dereferenceable(296) %1, ptr noundef nonnull align 8 dereferenceable(224) %2) local_unnamed_addr #5 align 2 personality ptr @__gxx_personality_v0 {
  %4 = alloca %"class.Json::Value", align 8
  %5 = alloca %"class.Json::Value", align 8
  %6 = alloca %"class.Json::Value", align 8
  tail call void @_ZN9cmFileAPI10BuildReplyERKNS_5QueryE(ptr dead_on_unwind writable sret(%"class.Json::Value") align 8 %0, ptr noundef nonnull align 8 dereferenceable(296) %1, ptr noundef nonnull align 8 dereferenceable(48) %2)
  %7 = getelementptr inbounds nuw i8, ptr %2, i64 48
  %8 = load i8, ptr %7, align 8, !tbaa !145, !range !90, !noundef !91
  %9 = trunc nuw i8 %8 to i1
  br i1 %9, label %10, label %62

10:                                               ; preds = %3
  %11 = invoke noundef nonnull align 8 dereferenceable(40) ptr @_ZN4Json5ValueixEPKc(ptr noundef nonnull align 8 dereferenceable(40) %0, ptr noundef nonnull @.str.27)
          to label %12 unwind label %28

12:                                               ; preds = %10
  %13 = getelementptr inbounds nuw i8, ptr %2, i64 56
  %14 = getelementptr inbounds nuw i8, ptr %2, i64 64
  %15 = load i64, ptr %14, align 8, !tbaa !62
  %16 = icmp eq i64 %15, 0
  br i1 %16, label %32, label %17

17:                                               ; preds = %12
  call void @llvm.lifetime.start.p0(i64 40, ptr nonnull %5) #24
  invoke void @_ZN4Json5ValueC1ENS_9ValueTypeE(ptr noundef nonnull align 8 dereferenceable(40) %5, i32 noundef 7)
          to label %.noexc unwind label %30

.noexc:                                           ; preds = %17
  call void @llvm.lifetime.start.p0(i64 40, ptr nonnull %4) #24, !noalias !345
  invoke void @_ZN4Json5ValueC1ERKNSt7__cxx1112basic_stringIcSt11char_traitsIcESaIcEEE(ptr noundef nonnull align 8 dereferenceable(40) %4, ptr noundef nonnull align 8 dereferenceable(32) %13)
          to label %18 unwind label %20

18:                                               ; preds = %.noexc
  %19 = invoke noundef nonnull align 8 dereferenceable(40) ptr @_ZN4Json5ValueixEPKc(ptr noundef nonnull align 8 dereferenceable(40) %5, ptr noundef nonnull @.str.42)
          to label %25 unwind label %22

20:                                               ; preds = %.noexc
  %21 = landingpad { ptr, i32 }
          cleanup
  br label %24

22:                                               ; preds = %18
  %23 = landingpad { ptr, i32 }
          cleanup
  call void @_ZN4Json5ValueD1Ev(ptr noundef nonnull align 8 dereferenceable(40) %4) #24
  br label %24

24:                                               ; preds = %22, %20
  %.pn.i = phi { ptr, i32 } [ %23, %22 ], [ %21, %20 ]
  call void @llvm.lifetime.end.p0(i64 40, ptr nonnull %4) #24, !noalias !345
  call void @_ZN4Json5ValueD1Ev(ptr noundef nonnull align 8 dereferenceable(40) %5) #24
  br label %.body

25:                                               ; preds = %18
  %26 = call noundef nonnull align 8 dereferenceable(40) ptr @_ZN4Json5ValueaSEOS0_(ptr noundef nonnull align 8 dereferenceable(40) %19, ptr noundef nonnull align 8 dereferenceable(40) %4) #24
  call void @_ZN4Json5ValueD1Ev(ptr noundef nonnull align 8 dereferenceable(40) %4) #24
  call void @llvm.lifetime.end.p0(i64 40, ptr nonnull %4) #24, !noalias !345
  %27 = call noundef nonnull align 8 dereferenceable(40) ptr @_ZN4Json5ValueaSEOS0_(ptr noundef nonnull align 8 dereferenceable(40) %11, ptr noundef nonnull align 8 dereferenceable(40) %5) #24
  call void @_ZN4Json5ValueD1Ev(ptr noundef nonnull align 8 dereferenceable(40) %5) #24
  call void @llvm.lifetime.end.p0(i64 40, ptr nonnull %5) #24
  br label %62

28:                                               ; preds = %10
  %29 = landingpad { ptr, i32 }
          cleanup
  br label %61

30:                                               ; preds = %17
  %31 = landingpad { ptr, i32 }
          cleanup
  br label %.body

.body:                                            ; preds = %24, %30
  %eh.lpad-body = phi { ptr, i32 } [ %31, %30 ], [ %.pn.i, %24 ]
  call void @llvm.lifetime.end.p0(i64 40, ptr nonnull %5) #24
  br label %61

32:                                               ; preds = %12
  %33 = getelementptr inbounds nuw i8, ptr %2, i64 88
  %34 = invoke noundef zeroext i1 @_ZNK4Json5Value6isNullEv(ptr noundef nonnull align 8 dereferenceable(40) %33)
          to label %35 unwind label %40

35:                                               ; preds = %32
  br i1 %34, label %42, label %36

36:                                               ; preds = %35
  %37 = invoke noundef nonnull align 8 dereferenceable(40) ptr @_ZN4Json5ValueixEPKc(ptr noundef nonnull align 8 dereferenceable(40) %11, ptr noundef nonnull @.str.30)
          to label %38 unwind label %40

38:                                               ; preds = %36
  %39 = invoke noundef nonnull align 8 dereferenceable(40) ptr @_ZN4Json5ValueaSERKS0_(ptr noundef nonnull align 8 dereferenceable(40) %37, ptr noundef nonnull align 8 dereferenceable(40) %33)
          to label %42 unwind label %40

40:                                               ; preds = %48, %46, %42, %38, %36, %32
  %41 = landingpad { ptr, i32 }
          cleanup
  br label %61

42:                                               ; preds = %38, %35
  %43 = getelementptr inbounds nuw i8, ptr %2, i64 128
  %44 = invoke noundef zeroext i1 @_ZNK4Json5Value6isNullEv(ptr noundef nonnull align 8 dereferenceable(40) %43)
          to label %45 unwind label %40

45:                                               ; preds = %42
  br i1 %44, label %50, label %46

46:                                               ; preds = %45
  %47 = invoke noundef nonnull align 8 dereferenceable(40) ptr @_ZN4Json5ValueixEPKc(ptr noundef nonnull align 8 dereferenceable(40) %11, ptr noundef nonnull @.str.31)
          to label %48 unwind label %40

48:                                               ; preds = %46
  %49 = invoke noundef nonnull align 8 dereferenceable(40) ptr @_ZN4Json5ValueaSERKS0_(ptr noundef nonnull align 8 dereferenceable(40) %47, ptr noundef nonnull align 8 dereferenceable(40) %43)
          to label %50 unwind label %40

50:                                               ; preds = %48, %45
  call void @llvm.lifetime.start.p0(i64 40, ptr nonnull %6) #24
  %51 = getelementptr inbounds nuw i8, ptr %2, i64 168
  invoke void @_ZN9cmFileAPI25BuildClientReplyResponsesERKNS_14ClientRequestsE(ptr dead_on_unwind nonnull writable sret(%"class.Json::Value") align 8 %6, ptr noundef nonnull align 8 dereferenceable(296) %1, ptr noundef nonnull align 8 dereferenceable(56) %51)
          to label %52 unwind label %56

52:                                               ; preds = %50
  %53 = invoke noundef nonnull align 8 dereferenceable(40) ptr @_ZN4Json5ValueixEPKc(ptr noundef nonnull align 8 dereferenceable(40) %11, ptr noundef nonnull @.str.61)
          to label %54 unwind label %58

54:                                               ; preds = %52
  %55 = call noundef nonnull align 8 dereferenceable(40) ptr @_ZN4Json5ValueaSEOS0_(ptr noundef nonnull align 8 dereferenceable(40) %53, ptr noundef nonnull align 8 dereferenceable(40) %6) #24
  call void @_ZN4Json5ValueD1Ev(ptr noundef nonnull align 8 dereferenceable(40) %6) #24
  call void @llvm.lifetime.end.p0(i64 40, ptr nonnull %6) #24
  br label %62

56:                                               ; preds = %50
  %57 = landingpad { ptr, i32 }
          cleanup
  br label %60

58:                                               ; preds = %52
  %59 = landingpad { ptr, i32 }
          cleanup
  call void @_ZN4Json5ValueD1Ev(ptr noundef nonnull align 8 dereferenceable(40) %6) #24
  br label %60

60:                                               ; preds = %58, %56
  %.pn = phi { ptr, i32 } [ %59, %58 ], [ %57, %56 ]
  call void @llvm.lifetime.end.p0(i64 40, ptr nonnull %6) #24
  br label %61

61:                                               ; preds = %.body, %40, %60, %28
  %.pn.pn.pn = phi { ptr, i32 } [ %29, %28 ], [ %.pn, %60 ], [ %41, %40 ], [ %eh.lpad-body, %.body ]
  call void @_ZN4Json5ValueD1Ev(ptr noundef nonnull align 8 dereferenceable(40) %0) #24
  resume { ptr, i32 } %.pn.pn.pn

62:                                               ; preds = %3, %54, %25
  ret void
}